; Function Attrs: nounwind uwtable
define dso_local void @show_combined_diff(ptr noundef %0, i32 noundef %1, ptr noundef %2) local_unnamed_addr #0 {
  %4 = getelementptr inbounds nuw i8, ptr %2, i64 1748
  %5 = load i32, ptr %4, align 4, !tbaa !4
  %6 = and i32 %5, 769
  %.not = icmp eq i32 %6, 0
  br i1 %.not, label %8, label %7

7:                                                ; preds = %3
  tail call fastcc void @show_raw_diff(ptr noundef %0, i32 noundef %1, ptr noundef nonnull %2)
  br label %11

8:                                                ; preds = %3
  %9 = and i32 %5, 16
  %.not8 = icmp eq i32 %9, 0
  br i1 %.not8, label %11, label %10

10:                                               ; preds = %8
  tail call fastcc void @show_patch_diff(ptr noundef %0, i32 noundef %1, i32 noundef 1, ptr noundef nonnull %2)
  br label %11

11:                                               ; preds = %8, %10, %7
  ret void
}